; Function Attrs: mustprogress nofree norecurse nosync nounwind willreturn memory(read, argmem: readwrite, inaccessiblemem: none) uwtable
define void @cuddGetBranches(ptr noundef %0, ptr noundef captures(none) initializes((0, 8)) %1, ptr noundef captures(none) initializes((0, 8)) %2) local_unnamed_addr #1 {
  %4 = ptrtoint ptr %0 to i64
  %5 = and i64 %4, -2
  %6 = inttoptr i64 %5 to ptr
  %7 = getelementptr inbounds nuw i8, ptr %6, i64 16
  %8 = load ptr, ptr %7, align 8
  store ptr %8, ptr %1, align 8
  %9 = getelementptr inbounds nuw i8, ptr %6, i64 24
  %10 = load ptr, ptr %9, align 8
  store ptr %10, ptr %2, align 8
  %11 = and i64 %4, 1
  %.not = icmp eq i64 %11, 0
  br i1 %.not, label %21, label %12

12:                                               ; preds = %3
  %13 = load ptr, ptr %1, align 8
  %14 = ptrtoint ptr %13 to i64
  %15 = xor i64 %14, 1
  %16 = inttoptr i64 %15 to ptr
  store ptr %16, ptr %1, align 8
  %17 = load ptr, ptr %2, align 8
  %18 = ptrtoint ptr %17 to i64
  %19 = xor i64 %18, 1
  %20 = inttoptr i64 %19 to ptr
  store ptr %20, ptr %2, align 8
  br label %21

21:                                               ; preds = %12, %3
  ret void
}